target datalayout = "e-m:e-p270:32:32-p271:32:32-p272:64:64-i64:64-i128:128-f80:128-n8:16:32:64-S128"
target triple = "x86_64-pc-linux-gnu"

%struct._nodeIterator = type { i32, i32, ptr }

; Function Attrs: nounwind uwtable
define internal void @itemHashScanner(ptr noundef %0, ptr noundef %1, ptr noundef %2) #0 {
  %4 = alloca ptr, align 8
  %5 = alloca ptr, align 8
  %6 = alloca ptr, align 8
  %7 = alloca ptr, align 8
  store ptr %0, ptr %4, align 8
  store ptr %1, ptr %5, align 8
  store ptr %2, ptr %6, align 8
  %8 = load ptr, ptr %5, align 8
  store ptr %8, ptr %7, align 8
  %9 = load ptr, ptr %7, align 8
  %10 = getelementptr inbounds %struct._nodeIterator, ptr %9, i32 0, i32 0
  %11 = load i32, ptr %10, align 8
  %12 = load ptr, ptr %7, align 8
  %13 = getelementptr inbounds %struct._nodeIterator, ptr %12, i32 0, i32 1
  %14 = load i32, ptr %13, align 4
  %15 = icmp slt i32 %11, %14
  br i1 %15, label %16, label %21

16:                                               ; preds = %3
  %17 = load ptr, ptr %7, align 8
  %18 = getelementptr inbounds %struct._nodeIterator, ptr %17, i32 0, i32 0
  %19 = load i32, ptr %18, align 8
  %20 = add nsw i32 %19, 1
  store i32 %20, ptr %18, align 8
  br label %31

21:                                               ; preds = %3
  %22 = load ptr, ptr %7, align 8
  %23 = getelementptr inbounds %struct._nodeIterator, ptr %22, i32 0, i32 2
  %24 = load ptr, ptr %23, align 8
  %25 = icmp eq ptr %24, null
  br i1 %25, label %26, label %30

26:                                               ; preds = %21
  %27 = load ptr, ptr %4, align 8
  %28 = load ptr, ptr %7, align 8
  %29 = getelementptr inbounds %struct._nodeIterator, ptr %28, i32 0, i32 2
  store ptr %27, ptr %29, align 8
  br label %30

30:                                               ; preds = %26, %21
  br label %31

31:                                               ; preds = %30, %16
  ret void
}