; Function Attrs: mustprogress nofree norecurse nosync nounwind willreturn memory(argmem: readwrite) uwtable
define internal void @itemHashScanner(ptr noundef %0, ptr nocapture noundef %1, ptr nocapture readnone %2) #3 {
  %4 = load i32, ptr %1, align 8
  %5 = getelementptr inbounds i8, ptr %1, i64 4
  %6 = load i32, ptr %5, align 4
  %7 = icmp slt i32 %4, %6
  br i1 %7, label %8, label %10

8:                                                ; preds = %3
  %9 = add nsw i32 %4, 1
  store i32 %9, ptr %1, align 8
  br label %15

10:                                               ; preds = %3
  %11 = getelementptr inbounds i8, ptr %1, i64 8
  %12 = load ptr, ptr %11, align 8
  %13 = icmp eq ptr %12, null
  br i1 %13, label %14, label %15

14:                                               ; preds = %10
  store ptr %0, ptr %11, align 8
  br label %15

15:                                               ; preds = %10, %14, %8
  ret void
}